; Function Attrs: mustprogress uwtable
define void @_ZN6icu_756number4impl17ParsedPatternInfo15consumeExponentER10UErrorCode(ptr nocapture noundef nonnull align 8 dereferenceable(433) %this, ptr nocapture noundef nonnull writeonly align 4 dereferenceable(4) %status) local_unnamed_addr #1 align 2 {
entry:
  %currentSubpattern = getelementptr inbounds i8, ptr %this, i64 424
  %0 = load ptr, ptr %currentSubpattern, align 8
  %state = getelementptr inbounds i8, ptr %this, i64 408
  %offset.i = getelementptr inbounds i8, ptr %this, i64 416
  %1 = load i32, ptr %offset.i, align 8
  %2 = load ptr, ptr %state, align 8
  %fUnion.i.i.i = getelementptr inbounds i8, ptr %2, i64 8
  %3 = load i16, ptr %fUnion.i.i.i, align 8
  %cmp.i.i.i = icmp slt i16 %3, 0
  %4 = ashr i16 %3, 5
  %shr.i.i.i = sext i16 %4 to i32
  %fLength.i.i = getelementptr inbounds i8, ptr %2, i64 12
  %5 = load i32, ptr %fLength.i.i, align 4
  %cond.i.i = select i1 %cmp.i.i.i, i32 %5, i32 %shr.i.i.i
  %cmp.i = icmp eq i32 %1, %cond.i.i
  br i1 %cmp.i, label %while.end, label %_ZN6icu_756number4impl17ParsedPatternInfo11ParserState4peekEv.exit

_ZN6icu_756number4impl17ParsedPatternInfo11ParserState4peekEv.exit: ; preds = %entry
  %call4.i = tail call noundef i32 @_ZNK6icu_7513UnicodeString8char32AtEi(ptr noundef nonnull align 8 dereferenceable(64) %2, i32 noundef %1)
  %cmp.not = icmp eq i32 %call4.i, 69
  br i1 %cmp.not, label %if.end, label %while.end

if.end:                                           ; preds = %_ZN6icu_756number4impl17ParsedPatternInfo11ParserState4peekEv.exit
  %6 = load i64, ptr %0, align 8
  %and = and i64 %6, 4294901760
  %cmp2.not = icmp eq i64 %and, 4294901760
  br i1 %cmp2.not, label %if.end5, label %if.then3

if.then3:                                         ; preds = %if.end
  store i32 65795, ptr %status, align 4
  br label %while.end

if.end5:                                          ; preds = %if.end
  %7 = load i32, ptr %offset.i, align 8
  %8 = load ptr, ptr %state, align 8
  %fUnion.i.i.i.i = getelementptr inbounds i8, ptr %8, i64 8
  %9 = load i16, ptr %fUnion.i.i.i.i, align 8
  %cmp.i.i.i.i = icmp slt i16 %9, 0
  %10 = ashr i16 %9, 5
  %shr.i.i.i.i = sext i16 %10 to i32
  %fLength.i.i.i = getelementptr inbounds i8, ptr %8, i64 12
  %11 = load i32, ptr %fLength.i.i.i, align 4
  %cond.i.i.i = select i1 %cmp.i.i.i.i, i32 %11, i32 %shr.i.i.i.i
  %cmp.i.i = icmp eq i32 %7, %cond.i.i.i
  br i1 %cmp.i.i, label %_ZN6icu_756number4impl17ParsedPatternInfo11ParserState4nextEv.exit, label %_ZN6icu_756number4impl17ParsedPatternInfo11ParserState4peekEv.exit.i

_ZN6icu_756number4impl17ParsedPatternInfo11ParserState4peekEv.exit.i: ; preds = %if.end5
  %call4.i.i = tail call noundef i32 @_ZNK6icu_7513UnicodeString8char32AtEi(ptr noundef nonnull align 8 dereferenceable(64) %8, i32 noundef %7)
  %cmp.i6 = icmp ult i32 %call4.i.i, 65536
  %spec.select.i = select i1 %cmp.i6, i32 1, i32 2
  %.pre.i = load i32, ptr %offset.i, align 8
  br label %_ZN6icu_756number4impl17ParsedPatternInfo11ParserState4nextEv.exit

_ZN6icu_756number4impl17ParsedPatternInfo11ParserState4nextEv.exit: ; preds = %if.end5, %_ZN6icu_756number4impl17ParsedPatternInfo11ParserState4peekEv.exit.i
  %12 = phi i32 [ %7, %if.end5 ], [ %.pre.i, %_ZN6icu_756number4impl17ParsedPatternInfo11ParserState4peekEv.exit.i ]
  %13 = phi i32 [ 2, %if.end5 ], [ %spec.select.i, %_ZN6icu_756number4impl17ParsedPatternInfo11ParserState4peekEv.exit.i ]
  %add.i = add nsw i32 %13, %12
  store i32 %add.i, ptr %offset.i, align 8
  %widthExceptAffixes = getelementptr inbounds i8, ptr %0, i64 44
  %14 = load i32, ptr %widthExceptAffixes, align 4
  %inc = add nsw i32 %14, 1
  store i32 %inc, ptr %widthExceptAffixes, align 4
  %15 = load i32, ptr %offset.i, align 8
  %16 = load ptr, ptr %state, align 8
  %fUnion.i.i.i8 = getelementptr inbounds i8, ptr %16, i64 8
  %17 = load i16, ptr %fUnion.i.i.i8, align 8
  %cmp.i.i.i9 = icmp slt i16 %17, 0
  %18 = ashr i16 %17, 5
  %shr.i.i.i10 = sext i16 %18 to i32
  %fLength.i.i11 = getelementptr inbounds i8, ptr %16, i64 12
  %19 = load i32, ptr %fLength.i.i11, align 4
  %cond.i.i12 = select i1 %cmp.i.i.i9, i32 %19, i32 %shr.i.i.i10
  %cmp.i13 = icmp eq i32 %15, %cond.i.i12
  br i1 %cmp.i13, label %if.end16, label %_ZN6icu_756number4impl17ParsedPatternInfo11ParserState4peekEv.exit17

_ZN6icu_756number4impl17ParsedPatternInfo11ParserState4peekEv.exit17: ; preds = %_ZN6icu_756number4impl17ParsedPatternInfo11ParserState4nextEv.exit
  %call4.i15 = tail call noundef i32 @_ZNK6icu_7513UnicodeString8char32AtEi(ptr noundef nonnull align 8 dereferenceable(64) %16, i32 noundef %15)
  %cmp10 = icmp eq i32 %call4.i15, 43
  %.pre71 = load i32, ptr %offset.i, align 8
  %.pre73 = load ptr, ptr %state, align 8
  br i1 %cmp10, label %if.then11, label %if.end16

if.then11:                                        ; preds = %_ZN6icu_756number4impl17ParsedPatternInfo11ParserState4peekEv.exit17
  %fUnion.i.i.i.i19 = getelementptr inbounds i8, ptr %.pre73, i64 8
  %20 = load i16, ptr %fUnion.i.i.i.i19, align 8
  %cmp.i.i.i.i20 = icmp slt i16 %20, 0
  %21 = ashr i16 %20, 5
  %shr.i.i.i.i21 = sext i16 %21 to i32
  %fLength.i.i.i22 = getelementptr inbounds i8, ptr %.pre73, i64 12
  %22 = load i32, ptr %fLength.i.i.i22, align 4
  %cond.i.i.i23 = select i1 %cmp.i.i.i.i20, i32 %22, i32 %shr.i.i.i.i21
  %cmp.i.i24 = icmp eq i32 %.pre71, %cond.i.i.i23
  br i1 %cmp.i.i24, label %_ZN6icu_756number4impl17ParsedPatternInfo11ParserState4nextEv.exit32, label %_ZN6icu_756number4impl17ParsedPatternInfo11ParserState4peekEv.exit.i25

_ZN6icu_756number4impl17ParsedPatternInfo11ParserState4peekEv.exit.i25: ; preds = %if.then11
  %call4.i.i26 = tail call noundef i32 @_ZNK6icu_7513UnicodeString8char32AtEi(ptr noundef nonnull align 8 dereferenceable(64) %.pre73, i32 noundef %.pre71)
  %cmp.i27 = icmp ult i32 %call4.i.i26, 65536
  %spec.select.i28 = select i1 %cmp.i27, i32 1, i32 2
  %.pre.i29 = load i32, ptr %offset.i, align 8
  br label %_ZN6icu_756number4impl17ParsedPatternInfo11ParserState4nextEv.exit32

_ZN6icu_756number4impl17ParsedPatternInfo11ParserState4nextEv.exit32: ; preds = %if.then11, %_ZN6icu_756number4impl17ParsedPatternInfo11ParserState4peekEv.exit.i25
  %23 = phi i32 [ %.pre71, %if.then11 ], [ %.pre.i29, %_ZN6icu_756number4impl17ParsedPatternInfo11ParserState4peekEv.exit.i25 ]
  %24 = phi i32 [ 2, %if.then11 ], [ %spec.select.i28, %_ZN6icu_756number4impl17ParsedPatternInfo11ParserState4peekEv.exit.i25 ]
  %add.i31 = add nsw i32 %24, %23
  store i32 %add.i31, ptr %offset.i, align 8
  %exponentHasPlusSign = getelementptr inbounds i8, ptr %0, i64 128
  store i8 1, ptr %exponentHasPlusSign, align 8
  %25 = load i32, ptr %widthExceptAffixes, align 4
  %inc15 = add nsw i32 %25, 1
  store i32 %inc15, ptr %widthExceptAffixes, align 4
  %.pre = load i32, ptr %offset.i, align 8
  %.pre72 = load ptr, ptr %state, align 8
  br label %if.end16

if.end16:                                         ; preds = %_ZN6icu_756number4impl17ParsedPatternInfo11ParserState4nextEv.exit, %_ZN6icu_756number4impl17ParsedPatternInfo11ParserState4nextEv.exit32, %_ZN6icu_756number4impl17ParsedPatternInfo11ParserState4peekEv.exit17
  %26 = phi ptr [ %16, %_ZN6icu_756number4impl17ParsedPatternInfo11ParserState4nextEv.exit ], [ %.pre72, %_ZN6icu_756number4impl17ParsedPatternInfo11ParserState4nextEv.exit32 ], [ %.pre73, %_ZN6icu_756number4impl17ParsedPatternInfo11ParserState4peekEv.exit17 ]
  %27 = phi i32 [ %15, %_ZN6icu_756number4impl17ParsedPatternInfo11ParserState4nextEv.exit ], [ %.pre, %_ZN6icu_756number4impl17ParsedPatternInfo11ParserState4nextEv.exit32 ], [ %.pre71, %_ZN6icu_756number4impl17ParsedPatternInfo11ParserState4peekEv.exit17 ]
  %fUnion.i.i.i3465 = getelementptr inbounds i8, ptr %26, i64 8
  %28 = load i16, ptr %fUnion.i.i.i3465, align 8
  %cmp.i.i.i3566 = icmp slt i16 %28, 0
  %29 = ashr i16 %28, 5
  %shr.i.i.i3667 = sext i16 %29 to i32
  %fLength.i.i3768 = getelementptr inbounds i8, ptr %26, i64 12
  %30 = load i32, ptr %fLength.i.i3768, align 4
  %cond.i.i3869 = select i1 %cmp.i.i.i3566, i32 %30, i32 %shr.i.i.i3667
  %cmp.i3970 = icmp eq i32 %27, %cond.i.i3869
  br i1 %cmp.i3970, label %while.end, label %_ZN6icu_756number4impl17ParsedPatternInfo11ParserState4peekEv.exit43.lr.ph

_ZN6icu_756number4impl17ParsedPatternInfo11ParserState4peekEv.exit43.lr.ph: ; preds = %if.end16
  %exponentZeros = getelementptr inbounds i8, ptr %0, i64 132
  br label %_ZN6icu_756number4impl17ParsedPatternInfo11ParserState4peekEv.exit43

_ZN6icu_756number4impl17ParsedPatternInfo11ParserState4peekEv.exit43: ; preds = %_ZN6icu_756number4impl17ParsedPatternInfo11ParserState4peekEv.exit43.lr.ph, %_ZN6icu_756number4impl17ParsedPatternInfo11ParserState4nextEv.exit58
  %31 = phi ptr [ %26, %_ZN6icu_756number4impl17ParsedPatternInfo11ParserState4peekEv.exit43.lr.ph ], [ %43, %_ZN6icu_756number4impl17ParsedPatternInfo11ParserState4nextEv.exit58 ]
  %32 = phi i32 [ %27, %_ZN6icu_756number4impl17ParsedPatternInfo11ParserState4peekEv.exit43.lr.ph ], [ %42, %_ZN6icu_756number4impl17ParsedPatternInfo11ParserState4nextEv.exit58 ]
  %call4.i41 = tail call noundef i32 @_ZNK6icu_7513UnicodeString8char32AtEi(ptr noundef nonnull align 8 dereferenceable(64) %31, i32 noundef %32)
  %cmp19 = icmp eq i32 %call4.i41, 48
  br i1 %cmp19, label %while.body, label %while.end

while.body:                                       ; preds = %_ZN6icu_756number4impl17ParsedPatternInfo11ParserState4peekEv.exit43
  %33 = load i32, ptr %offset.i, align 8
  %34 = load ptr, ptr %state, align 8
  %fUnion.i.i.i.i45 = getelementptr inbounds i8, ptr %34, i64 8
  %35 = load i16, ptr %fUnion.i.i.i.i45, align 8
  %cmp.i.i.i.i46 = icmp slt i16 %35, 0
  %36 = ashr i16 %35, 5
  %shr.i.i.i.i47 = sext i16 %36 to i32
  %fLength.i.i.i48 = getelementptr inbounds i8, ptr %34, i64 12
  %37 = load i32, ptr %fLength.i.i.i48, align 4
  %cond.i.i.i49 = select i1 %cmp.i.i.i.i46, i32 %37, i32 %shr.i.i.i.i47
  %cmp.i.i50 = icmp eq i32 %33, %cond.i.i.i49
  br i1 %cmp.i.i50, label %_ZN6icu_756number4impl17ParsedPatternInfo11ParserState4nextEv.exit58, label %_ZN6icu_756number4impl17ParsedPatternInfo11ParserState4peekEv.exit.i51

_ZN6icu_756number4impl17ParsedPatternInfo11ParserState4peekEv.exit.i51: ; preds = %while.body
  %call4.i.i52 = tail call noundef i32 @_ZNK6icu_7513UnicodeString8char32AtEi(ptr noundef nonnull align 8 dereferenceable(64) %34, i32 noundef %33)
  %cmp.i53 = icmp ult i32 %call4.i.i52, 65536
  %spec.select.i54 = select i1 %cmp.i53, i32 1, i32 2
  %.pre.i55 = load i32, ptr %offset.i, align 8
  br label %_ZN6icu_756number4impl17ParsedPatternInfo11ParserState4nextEv.exit58

_ZN6icu_756number4impl17ParsedPatternInfo11ParserState4nextEv.exit58: ; preds = %while.body, %_ZN6icu_756number4impl17ParsedPatternInfo11ParserState4peekEv.exit.i51
  %38 = phi i32 [ %33, %while.body ], [ %.pre.i55, %_ZN6icu_756number4impl17ParsedPatternInfo11ParserState4peekEv.exit.i51 ]
  %39 = phi i32 [ 2, %while.body ], [ %spec.select.i54, %_ZN6icu_756number4impl17ParsedPatternInfo11ParserState4peekEv.exit.i51 ]
  %add.i57 = add nsw i32 %39, %38
  store i32 %add.i57, ptr %offset.i, align 8
  %40 = load i32, ptr %exponentZeros, align 4
  %add = add nsw i32 %40, 1
  store i32 %add, ptr %exponentZeros, align 4
  %41 = load i32, ptr %widthExceptAffixes, align 4
  %inc23 = add nsw i32 %41, 1
  store i32 %inc23, ptr %widthExceptAffixes, align 4
  %42 = load i32, ptr %offset.i, align 8
  %43 = load ptr, ptr %state, align 8
  %fUnion.i.i.i34 = getelementptr inbounds i8, ptr %43, i64 8
  %44 = load i16, ptr %fUnion.i.i.i34, align 8
  %cmp.i.i.i35 = icmp slt i16 %44, 0
  %45 = ashr i16 %44, 5
  %shr.i.i.i36 = sext i16 %45 to i32
  %fLength.i.i37 = getelementptr inbounds i8, ptr %43, i64 12
  %46 = load i32, ptr %fLength.i.i37, align 4
  %cond.i.i38 = select i1 %cmp.i.i.i35, i32 %46, i32 %shr.i.i.i36
  %cmp.i39 = icmp eq i32 %42, %cond.i.i38
  br i1 %cmp.i39, label %while.end, label %_ZN6icu_756number4impl17ParsedPatternInfo11ParserState4peekEv.exit43, !llvm.loop !6

while.end:                                        ; preds = %_ZN6icu_756number4impl17ParsedPatternInfo11ParserState4peekEv.exit43, %_ZN6icu_756number4impl17ParsedPatternInfo11ParserState4nextEv.exit58, %if.end16, %entry, %_ZN6icu_756number4impl17ParsedPatternInfo11ParserState4peekEv.exit, %if.then3
  ret void
}